target datalayout = "e-m:e-p270:32:32-p271:32:32-p272:64:64-i64:64-i128:128-f80:128-n8:16:32:64-S128"
target triple = "x86_64-pc-linux-gnu"

%struct.rbimpl_size_mul_overflow_tag = type { i8, i64 }

; Function Attrs: inlinehint nounwind sspstrong willreturn memory(none) uwtable
define internal { i8, i64 } @rbimpl_size_mul_overflow(i64 noundef %0, i64 noundef %1) #5 {
  %3 = alloca %struct.rbimpl_size_mul_overflow_tag, align 8
  %4 = alloca i64, align 8
  %5 = alloca i64, align 8
  store i64 %0, ptr %4, align 8, !tbaa !11
  store i64 %1, ptr %5, align 8, !tbaa !11
  call void @llvm.memset.p0.i64(ptr align 8 %3, i8 0, i64 16, i1 false)
  %6 = load i64, ptr %4, align 8, !tbaa !11
  %7 = load i64, ptr %5, align 8, !tbaa !11
  %8 = getelementptr inbounds nuw %struct.rbimpl_size_mul_overflow_tag, ptr %3, i32 0, i32 1
  %9 = call { i64, i1 } @llvm.umul.with.overflow.i64(i64 %6, i64 %7)
  %10 = extractvalue { i64, i1 } %9, 1
  %11 = extractvalue { i64, i1 } %9, 0
  store i64 %11, ptr %8, align 8
  %12 = getelementptr inbounds nuw %struct.rbimpl_size_mul_overflow_tag, ptr %3, i32 0, i32 0
  %13 = zext i1 %10 to i8
  store i8 %13, ptr %12, align 8, !tbaa !33
  %14 = load { i8, i64 }, ptr %3, align 8
  ret { i8, i64 } %14
}

; Function Attrs: inlinehint nounwind sspstrong uwtable
define internal i64 @rbimpl_size_mul_or_raise(i64 noundef %0, i64 noundef %1) #8 {
  %3 = alloca i64, align 8
  %4 = alloca i64, align 8
  %5 = alloca %struct.rbimpl_size_mul_overflow_tag, align 8
  store i64 %0, ptr %3, align 8, !tbaa !11
  store i64 %1, ptr %4, align 8, !tbaa !11
  call void @llvm.lifetime.start.p0(i64 16, ptr %5) #17
  %6 = load i64, ptr %3, align 8, !tbaa !11
  %7 = load i64, ptr %4, align 8, !tbaa !11
  %8 = call { i8, i64 } @rbimpl_size_mul_overflow(i64 noundef %6, i64 noundef %7) #19
  %9 = getelementptr inbounds nuw { i8, i64 }, ptr %5, i32 0, i32 0
  %10 = extractvalue { i8, i64 } %8, 0
  store i8 %10, ptr %9, align 8
  %11 = getelementptr inbounds nuw { i8, i64 }, ptr %5, i32 0, i32 1
  %12 = extractvalue { i8, i64 } %8, 1
  store i64 %12, ptr %11, align 8
  %13 = getelementptr inbounds nuw %struct.rbimpl_size_mul_overflow_tag, ptr %5, i32 0, i32 0
  %14 = load i8, ptr %13, align 8, !tbaa !33, !range !36, !noundef !37
  %15 = trunc i8 %14 to i1
  %16 = xor i1 %15, true
  %17 = xor i1 %16, true
  %18 = xor i1 %17, true
  %19 = zext i1 %18 to i32
  %20 = sext i32 %19 to i64
  %21 = call i64 @llvm.expect.i64(i64 %20, i64 1)
  %22 = icmp ne i64 %21, 0
  br i1 %22, label %23, label %26

23:                                               ; preds = %2
  %24 = getelementptr inbounds nuw %struct.rbimpl_size_mul_overflow_tag, ptr %5, i32 0, i32 1
  %25 = load i64, ptr %24, align 8, !tbaa !38
  call void @llvm.lifetime.end.p0(i64 16, ptr %5) #17
  ret i64 %25

26:                                               ; preds = %2
  %27 = load i64, ptr %3, align 8, !tbaa !11
  %28 = load i64, ptr %4, align 8, !tbaa !11
  call void @ruby_malloc_size_overflow(i64 noundef %27, i64 noundef %28) #22
  unreachable
}

; Function Attrs: inlinehint nounwind sspstrong willreturn memory(none) uwtable
define internal i64 @RB_INT2FIX(i64 noundef %0) #5 {
  %2 = alloca i64, align 8
  %3 = alloca i64, align 8
  %4 = alloca i64, align 8
  %5 = alloca i64, align 8
  %6 = alloca i64, align 8
  %7 = alloca i64, align 8
  store i64 %0, ptr %2, align 8, !tbaa !11
  call void @llvm.lifetime.start.p0(i64 8, ptr %3) #17
  %8 = load i64, ptr %2, align 8, !tbaa !11
  store i64 %8, ptr %3, align 8, !tbaa !11
  call void @llvm.lifetime.start.p0(i64 8, ptr %4) #17
  %9 = load i64, ptr %3, align 8, !tbaa !11
  %10 = shl i64 %9, 1
  %11 = add i64 %10, 1
  store i64 %11, ptr %4, align 8, !tbaa !11
  call void @llvm.lifetime.start.p0(i64 8, ptr %5) #17
  %12 = load i64, ptr %4, align 8, !tbaa !11
  store i64 %12, ptr %5, align 8, !tbaa !11
  call void @llvm.lifetime.start.p0(i64 8, ptr %6) #17
  %13 = load i64, ptr %5, align 8, !tbaa !11
  store i64 %13, ptr %6, align 8, !tbaa !11
  call void @llvm.lifetime.start.p0(i64 8, ptr %7) #17
  %14 = load i64, ptr %6, align 8, !tbaa !11
  store i64 %14, ptr %7, align 8, !tbaa !11
  %15 = load i64, ptr %7, align 8, !tbaa !11
  call void @llvm.lifetime.end.p0(i64 8, ptr %7) #17
  call void @llvm.lifetime.end.p0(i64 8, ptr %6) #17
  call void @llvm.lifetime.end.p0(i64 8, ptr %5) #17
  call void @llvm.lifetime.end.p0(i64 8, ptr %4) #17
  call void @llvm.lifetime.end.p0(i64 8, ptr %3) #17
  ret i64 %15
}

; Function Attrs: alwaysinline nounwind
define internal ptr @memcpy.inline(ptr noalias nonnull %0, ptr noalias nonnull %1, i64 %2) #9 {
  %4 = alloca ptr, align 8
  %5 = alloca ptr, align 8
  %6 = alloca i64, align 8
  store ptr %0, ptr %4, align 8, !tbaa !32
  store ptr %1, ptr %5, align 8, !tbaa !32
  store i64 %2, ptr %6, align 8, !tbaa !11
  %7 = load ptr, ptr %4, align 8, !tbaa !32
  %8 = load ptr, ptr %5, align 8, !tbaa !32
  %9 = load i64, ptr %6, align 8, !tbaa !11
  %10 = load ptr, ptr %4, align 8, !tbaa !32
  %11 = call i64 @llvm.objectsize.i64.p0(ptr %10, i1 false, i1 true, i1 false)
  %12 = call ptr @__memcpy_chk(ptr noundef %7, ptr noundef %8, i64 noundef %9, i64 noundef %11) #17
  ret ptr %12
}

; Function Attrs: inlinehint nounwind sspstrong uwtable
define internal ptr @rb_alloc_tmp_buffer2(ptr noundef %0, i64 noundef %1, i64 noundef %2) #8 {
  %4 = alloca ptr, align 8
  %5 = alloca i64, align 8
  %6 = alloca i64, align 8
  %7 = alloca i64, align 8
  %8 = alloca i64, align 8
  store ptr %0, ptr %4, align 8, !tbaa !27
  store i64 %1, ptr %5, align 8, !tbaa !11
  store i64 %2, ptr %6, align 8, !tbaa !11
  call void @llvm.lifetime.start.p0(i64 8, ptr %7) #17
  %9 = load i64, ptr %5, align 8, !tbaa !11
  %10 = load i64, ptr %6, align 8, !tbaa !11
  %11 = call i64 @rbimpl_size_mul_or_raise(i64 noundef %9, i64 noundef %10)
  store i64 %11, ptr %7, align 8, !tbaa !11
  call void @llvm.lifetime.start.p0(i64 8, ptr %8) #17
  %12 = load i64, ptr %7, align 8, !tbaa !11
  %13 = add i64 %12, 8
  %14 = sub i64 %13, 1
  %15 = udiv i64 %14, 8
  store i64 %15, ptr %8, align 8, !tbaa !11
  %16 = load ptr, ptr %4, align 8, !tbaa !27
  %17 = load i64, ptr %7, align 8, !tbaa !11
  %18 = load i64, ptr %8, align 8, !tbaa !11
  %19 = call noalias nonnull ptr @rb_alloc_tmp_buffer_with_count(ptr noundef %16, i64 noundef %17, i64 noundef %18) #21
  call void @llvm.lifetime.end.p0(i64 8, ptr %8) #17
  call void @llvm.lifetime.end.p0(i64 8, ptr %7) #17
  ret ptr %19
}

; Function Attrs: inlinehint nounwind sspstrong uwtable
define internal i64 @rb_long2num_inline(i64 noundef %0) #8 {
  %2 = alloca i64, align 8
  %3 = alloca i64, align 8
  store i64 %0, ptr %3, align 8, !tbaa !11
  %4 = load i64, ptr %3, align 8, !tbaa !11
  %5 = icmp slt i64 %4, 4611686018427387904
  br i1 %5, label %6, label %12

6:                                                ; preds = %1
  %7 = load i64, ptr %3, align 8, !tbaa !11
  %8 = icmp sge i64 %7, -4611686018427387904
  br i1 %8, label %9, label %12

9:                                                ; preds = %6
  %10 = load i64, ptr %3, align 8, !tbaa !11
  %11 = call i64 @RB_INT2FIX(i64 noundef %10) #19
  store i64 %11, ptr %2, align 8
  br label %15

12:                                               ; preds = %6, %1
  %13 = load i64, ptr %3, align 8, !tbaa !11
  %14 = call i64 @rb_int2big(i64 noundef %13)
  store i64 %14, ptr %2, align 8
  br label %15

15:                                               ; preds = %12, %9
  %16 = load i64, ptr %2, align 8
  ret i64 %16
}

; Function Attrs: inlinehint nounwind sspstrong willreturn memory(none) uwtable
define internal i32 @rb_isdigit(i32 noundef %0) #5 {
  %2 = alloca i32, align 4
  store i32 %0, ptr %2, align 4, !tbaa !22
  %3 = load i32, ptr %2, align 4, !tbaa !22
  %4 = icmp sle i32 48, %3
  br i1 %4, label %5, label %8

5:                                                ; preds = %1
  %6 = load i32, ptr %2, align 4, !tbaa !22
  %7 = icmp sle i32 %6, 57
  br label %8

8:                                                ; preds = %5, %1
  %9 = phi i1 [ false, %1 ], [ %7, %5 ]
  %10 = zext i1 %9 to i32
  ret i32 %10
}

; Function Attrs: nounwind sspstrong uwtable
define internal i64 @read_digits(ptr noundef %0, i64 noundef %1, ptr noundef %2, i64 noundef %3) #0 {
  %5 = alloca i64, align 8
  %6 = alloca ptr, align 8
  %7 = alloca i64, align 8
  %8 = alloca ptr, align 8
  %9 = alloca i64, align 8
  %10 = alloca i64, align 8
  %11 = alloca i32, align 4
  %12 = alloca ptr, align 8
  %13 = alloca i64, align 8
  %14 = alloca i64, align 8
  %15 = alloca ptr, align 8
  store ptr %0, ptr %6, align 8, !tbaa !6
  store i64 %1, ptr %7, align 8, !tbaa !11
  store ptr %2, ptr %8, align 8, !tbaa !27
  store i64 %3, ptr %9, align 8, !tbaa !11
  call void @llvm.lifetime.start.p0(i64 8, ptr %10) #17
  %16 = load i64, ptr %9, align 8, !tbaa !11
  %17 = icmp ne i64 %16, 0
  br i1 %17, label %19, label %18

18:                                               ; preds = %4
  store i64 0, ptr %5, align 8
  store i32 1, ptr %11, align 4
  br label %109

19:                                               ; preds = %4
  store i64 0, ptr %10, align 8, !tbaa !11
  br label %20

20:                                               ; preds = %40, %19
  %21 = load i64, ptr %10, align 8, !tbaa !11
  %22 = load i64, ptr %7, align 8, !tbaa !11
  %23 = icmp ult i64 %21, %22
  br i1 %23, label %24, label %32

24:                                               ; preds = %20
  %25 = load ptr, ptr %6, align 8, !tbaa !6
  %26 = load i64, ptr %10, align 8, !tbaa !11
  %27 = getelementptr inbounds nuw i8, ptr %25, i64 %26
  %28 = load i8, ptr %27, align 1, !tbaa !15
  %29 = sext i8 %28 to i32
  %30 = call i32 @rb_isdigit(i32 noundef %29) #19
  %31 = icmp ne i32 %30, 0
  br label %32

32:                                               ; preds = %24, %20
  %33 = phi i1 [ false, %20 ], [ %31, %24 ]
  br i1 %33, label %34, label %41

34:                                               ; preds = %32
  %35 = load i64, ptr %10, align 8, !tbaa !11
  %36 = add i64 %35, 1
  store i64 %36, ptr %10, align 8, !tbaa !11
  %37 = load i64, ptr %9, align 8, !tbaa !11
  %38 = icmp eq i64 %36, %37
  br i1 %38, label %39, label %40

39:                                               ; preds = %34
  br label %41

40:                                               ; preds = %34
  br label %20, !llvm.loop !30

41:                                               ; preds = %39, %32
  %42 = load i64, ptr %10, align 8, !tbaa !11
  %43 = icmp eq i64 %42, 0
  br i1 %43, label %44, label %45

44:                                               ; preds = %41
  store i64 0, ptr %5, align 8
  store i32 1, ptr %11, align 4
  br label %109

45:                                               ; preds = %41
  %46 = load i64, ptr %10, align 8, !tbaa !11
  %47 = mul i64 4, %46
  %48 = mul i64 %47, 1
  %49 = icmp ule i64 %48, 64
  br i1 %49, label %50, label %83

50:                                               ; preds = %45
  call void @llvm.lifetime.start.p0(i64 8, ptr %12) #17
  %51 = load ptr, ptr %6, align 8, !tbaa !6
  store ptr %51, ptr %12, align 8, !tbaa !6
  call void @llvm.lifetime.start.p0(i64 8, ptr %13) #17
  store i64 0, ptr %13, align 8, !tbaa !11
  br label %52

52:                                               ; preds = %60, %50
  %53 = load ptr, ptr %6, align 8, !tbaa !6
  %54 = load ptr, ptr %12, align 8, !tbaa !6
  %55 = ptrtoint ptr %53 to i64
  %56 = ptrtoint ptr %54 to i64
  %57 = sub i64 %55, %56
  %58 = load i64, ptr %10, align 8, !tbaa !11
  %59 = icmp ult i64 %57, %58
  br i1 %59, label %60, label %72

60:                                               ; preds = %52
  %61 = load i64, ptr %13, align 8, !tbaa !11
  %62 = mul nsw i64 %61, 10
  store i64 %62, ptr %13, align 8, !tbaa !11
  %63 = load ptr, ptr %6, align 8, !tbaa !6
  %64 = load i8, ptr %63, align 1, !tbaa !15
  %65 = sext i8 %64 to i32
  %66 = sub nsw i32 %65, 48
  %67 = sext i32 %66 to i64
  %68 = load i64, ptr %13, align 8, !tbaa !11
  %69 = add nsw i64 %68, %67
  store i64 %69, ptr %13, align 8, !tbaa !11
  %70 = load ptr, ptr %6, align 8, !tbaa !6
  %71 = getelementptr inbounds nuw i8, ptr %70, i32 1
  store ptr %71, ptr %6, align 8, !tbaa !6
  br label %52, !llvm.loop !31

72:                                               ; preds = %52
  %73 = load ptr, ptr %12, align 8, !tbaa !6
  %74 = load ptr, ptr %6, align 8, !tbaa !6
  %75 = icmp eq ptr %73, %74
  br i1 %75, label %76, label %77

76:                                               ; preds = %72
  store i64 0, ptr %5, align 8
  store i32 1, ptr %11, align 4
  br label %82

77:                                               ; preds = %72
  %78 = load i64, ptr %13, align 8, !tbaa !11
  %79 = call i64 @rb_long2num_inline(i64 noundef %78)
  %80 = load ptr, ptr %8, align 8, !tbaa !27
  store i64 %79, ptr %80, align 8, !tbaa !11
  %81 = load i64, ptr %10, align 8, !tbaa !11
  store i64 %81, ptr %5, align 8
  store i32 1, ptr %11, align 4
  br label %82

82:                                               ; preds = %77, %76
  call void @llvm.lifetime.end.p0(i64 8, ptr %13) #17
  call void @llvm.lifetime.end.p0(i64 8, ptr %12) #17
  br label %109

83:                                               ; preds = %45
  call void @llvm.lifetime.start.p0(i64 8, ptr %14) #17
  store i64 0, ptr %14, align 8, !tbaa !11
  call void @llvm.lifetime.start.p0(i64 8, ptr %15) #17
  %84 = load i64, ptr %10, align 8, !tbaa !11
  %85 = add i64 %84, 1
  %86 = icmp ult i64 %85, 1024
  br i1 %86, label %87, label %92

87:                                               ; preds = %83
  store i64 0, ptr %14, align 8, !tbaa !11
  %88 = load i64, ptr %10, align 8, !tbaa !11
  %89 = add i64 %88, 1
  %90 = mul i64 %89, 1
  %91 = alloca i8, i64 %90, align 16
  br label %96

92:                                               ; preds = %83
  %93 = load i64, ptr %10, align 8, !tbaa !11
  %94 = add i64 %93, 1
  %95 = call ptr @rb_alloc_tmp_buffer2(ptr noundef %14, i64 noundef %94, i64 noundef 1)
  br label %96

96:                                               ; preds = %92, %87
  %97 = phi ptr [ %91, %87 ], [ %95, %92 ]
  store ptr %97, ptr %15, align 8, !tbaa !6
  %98 = load ptr, ptr %15, align 8, !tbaa !6
  %99 = load ptr, ptr %6, align 8, !tbaa !6
  %100 = load i64, ptr %10, align 8, !tbaa !11
  %101 = call ptr @memcpy.inline(ptr noundef %98, ptr noundef %99, i64 noundef %100) #17
  %102 = load ptr, ptr %15, align 8, !tbaa !6
  %103 = load i64, ptr %10, align 8, !tbaa !11
  %104 = getelementptr inbounds nuw i8, ptr %102, i64 %103
  store i8 0, ptr %104, align 1, !tbaa !15
  %105 = load ptr, ptr %15, align 8, !tbaa !6
  %106 = call i64 @rb_cstr_to_inum(ptr noundef %105, i32 noundef 10, i32 noundef 0)
  %107 = load ptr, ptr %8, align 8, !tbaa !27
  store i64 %106, ptr %107, align 8, !tbaa !11
  call void @rb_free_tmp_buffer(ptr noundef %14)
  %108 = load i64, ptr %10, align 8, !tbaa !11
  store i64 %108, ptr %5, align 8
  store i32 1, ptr %11, align 4
  call void @llvm.lifetime.end.p0(i64 8, ptr %15) #17
  call void @llvm.lifetime.end.p0(i64 8, ptr %14) #17
  br label %109

109:                                              ; preds = %96, %82, %44, %18
  call void @llvm.lifetime.end.p0(i64 8, ptr %10) #17
  %110 = load i64, ptr %5, align 8
  ret i64 %110
}