; Function Attrs: nounwind sspstrong uwtable
define internal fastcc i64 @read_digits(ptr noundef %0, i64 noundef %1, ptr noundef nonnull writeonly captures(none) %2, i64 noundef range(i64 1, -9223372036854775808) %3) unnamed_addr #0 {
  %5 = alloca i64, align 8
  br label %6

6:                                                ; preds = %13, %4
  %.035 = phi i64 [ 0, %4 ], [ %14, %13 ]
  %exitcond.not = icmp eq i64 %.035, %1
  br i1 %exitcond.not, label %.critedge, label %7

7:                                                ; preds = %6
  %8 = getelementptr inbounds nuw i8, ptr %0, i64 %.035
  %9 = load i8, ptr %8, align 1, !tbaa !15
  %10 = sext i8 %9 to i32
  %11 = add nsw i32 %10, -58
  %12 = icmp ult i32 %11, -10
  br i1 %12, label %.critedge, label %13

13:                                               ; preds = %7
  %14 = add nuw nsw i64 %.035, 1
  %15 = icmp eq i64 %14, %3
  br i1 %15, label %.critedge.thread, label %6, !llvm.loop !26

.critedge:                                        ; preds = %6, %7
  %.035.lcssa = phi i64 [ %1, %6 ], [ %.035, %7 ]
  %16 = icmp eq i64 %.035.lcssa, 0
  br i1 %16, label %48, label %.critedge.thread

.critedge.thread:                                 ; preds = %13, %.critedge
  %.13643 = phi i64 [ %.035.lcssa, %.critedge ], [ %3, %13 ]
  %17 = shl i64 %.13643, 2
  %18 = icmp ult i64 %17, 65
  br i1 %18, label %.lr.ph.preheader, label %35

.lr.ph.preheader:                                 ; preds = %.critedge.thread
  %19 = ptrtoint ptr %0 to i64
  br label %.lr.ph

.lr.ph:                                           ; preds = %.lr.ph.preheader, %.lr.ph
  %.03346 = phi i64 [ %24, %.lr.ph ], [ 0, %.lr.ph.preheader ]
  %.03445 = phi ptr [ %25, %.lr.ph ], [ %0, %.lr.ph.preheader ]
  %20 = mul nsw i64 %.03346, 10
  %21 = load i8, ptr %.03445, align 1, !tbaa !15
  %22 = sext i8 %21 to i64
  %23 = add i64 %20, -48
  %24 = add i64 %23, %22
  %25 = getelementptr inbounds nuw i8, ptr %.03445, i64 1
  %26 = ptrtoint ptr %25 to i64
  %27 = sub i64 %26, %19
  %28 = icmp ult i64 %27, %.13643
  br i1 %28, label %.lr.ph, label %._crit_edge, !llvm.loop !27

._crit_edge:                                      ; preds = %.lr.ph
  %29 = add i64 %24, 4611686018427387904
  %or.cond.i = icmp sgt i64 %29, -1
  br i1 %or.cond.i, label %30, label %33

30:                                               ; preds = %._crit_edge
  %31 = shl nsw i64 %24, 1
  %32 = or disjoint i64 %31, 1
  br label %rb_long2num_inline.exit

33:                                               ; preds = %._crit_edge
  %34 = tail call i64 @rb_int2big(i64 noundef %24) #10
  br label %rb_long2num_inline.exit

rb_long2num_inline.exit:                          ; preds = %30, %33
  %.0.i = phi i64 [ %32, %30 ], [ %34, %33 ]
  store i64 %.0.i, ptr %2, align 8, !tbaa !6
  br label %48

35:                                               ; preds = %.critedge.thread
  call void @llvm.lifetime.start.p0(i64 8, ptr nonnull %5) #10
  store i64 0, ptr %5, align 8, !tbaa !6
  %36 = add i64 %.13643, 1
  %37 = icmp ult i64 %36, 1024
  br i1 %37, label %38, label %40

38:                                               ; preds = %35
  %39 = alloca i8, i64 %36, align 16
  br label %44

40:                                               ; preds = %35
  %41 = add i64 %.13643, 8
  %42 = lshr i64 %41, 3
  %43 = call noalias nonnull ptr @rb_alloc_tmp_buffer_with_count(ptr noundef nonnull %5, i64 noundef range(i64 1024, 0) %36, i64 noundef %42) #14
  br label %44

44:                                               ; preds = %40, %38
  %45 = phi ptr [ %39, %38 ], [ %43, %40 ]
  call void @llvm.memcpy.p0.p0.i64(ptr noundef nonnull align 1 dereferenceable(1) %45, ptr noundef nonnull align 1 dereferenceable(1) %0, i64 noundef range(i64 1, 0) %.13643, i1 noundef false) #10
  %46 = getelementptr inbounds nuw i8, ptr %45, i64 %.13643
  store i8 0, ptr %46, align 1, !tbaa !15
  %47 = call i64 @rb_cstr_to_inum(ptr noundef nonnull %45, i32 noundef 10, i32 noundef 0) #10
  store i64 %47, ptr %2, align 8, !tbaa !6
  call void @rb_free_tmp_buffer(ptr noundef nonnull %5) #10
  call void @llvm.lifetime.end.p0(i64 8, ptr nonnull %5) #10
  br label %48

48:                                               ; preds = %rb_long2num_inline.exit, %.critedge, %44
  %.0 = phi i64 [ %.13643, %44 ], [ 0, %.critedge ], [ %.13643, %rb_long2num_inline.exit ]
  ret i64 %.0
}